; Function Attrs: nounwind uwtable
define dso_local void @PageRestoreTempPage(ptr noundef %0, ptr noundef writeonly captures(none) %1) local_unnamed_addr #3 {
  %3 = getelementptr i8, ptr %0, i64 18
  %.val = load i16, ptr %3, align 2
  %4 = and i16 %.val, -256
  %5 = zext i16 %4 to i64
  tail call void @llvm.memcpy.p0.p0.i64(ptr align 1 %1, ptr align 1 %0, i64 %5, i1 false)
  tail call void @pfree(ptr noundef %0) #12
  ret void
}